; Function Attrs: mustprogress uwtable
define hidden void @_ZN4cvc58internal9TrustNode12mkTrustLemmaENS0_12NodeTemplateILb1EEEPNS0_14ProofGeneratorE(ptr dead_on_unwind noalias writable writeonly sret(%"class.cvc5::internal::TrustNode") align 8 captures(none) %0, ptr noundef readonly captures(none) %1, ptr noundef %2) local_unnamed_addr #4 align 2 personality ptr @__gxx_personality_v0 {
  %4 = alloca %"class.cvc5::internal::NodeTemplate", align 8
  %5 = alloca %"class.cvc5::internal::NodeTemplate", align 8
  %6 = alloca %"class.cvc5::internal::NodeTemplate", align 8
  call void @llvm.lifetime.start.p0(i64 8, ptr nonnull %4) #17
  %7 = load ptr, ptr %1, align 8, !tbaa !3
  store ptr %7, ptr %5, align 8, !tbaa !3
  %8 = load i64, ptr %7, align 8
  %9 = lshr i64 %8, 40
  %10 = trunc nuw nsw i64 %9 to i32
  %11 = and i32 %10, 1048575
  %12 = icmp samesign ult i32 %11, 1048574
  br i1 %12, label %13, label %18, !prof !9

13:                                               ; preds = %3
  %14 = add i64 %8, 1099511627776
  %15 = and i64 %14, 1152920405095219200
  %16 = and i64 %8, -1152920405095219201
  %17 = or disjoint i64 %15, %16
  store i64 %17, ptr %7, align 8
  br label %_ZN4cvc58internal12NodeTemplateILb1EEC2ERKS2_.exit

18:                                               ; preds = %3
  %19 = icmp eq i32 %11, 1048574
  br i1 %19, label %20, label %_ZN4cvc58internal12NodeTemplateILb1EEC2ERKS2_.exit, !prof !10

20:                                               ; preds = %18
  %21 = or i64 %8, 1152920405095219200
  store i64 %21, ptr %7, align 8
  tail call void @_ZN4cvc58internal4expr9NodeValue20markRefCountMaxedOutEv(ptr noundef nonnull align 8 dereferenceable(24) %7)
  %.pre = load i64, ptr %7, align 8, !noalias !37
  br label %_ZN4cvc58internal12NodeTemplateILb1EEC2ERKS2_.exit

_ZN4cvc58internal12NodeTemplateILb1EEC2ERKS2_.exit: ; preds = %13, %18, %20
  %22 = phi i64 [ %17, %13 ], [ %8, %18 ], [ %.pre, %20 ]
  tail call void @llvm.experimental.noalias.scope.decl(metadata !37)
  store ptr %7, ptr %4, align 8, !tbaa !3, !alias.scope !37
  %23 = lshr i64 %22, 40
  %24 = trunc nuw nsw i64 %23 to i32
  %25 = and i32 %24, 1048575
  %26 = icmp samesign ult i32 %25, 1048574
  br i1 %26, label %27, label %32, !prof !9

27:                                               ; preds = %_ZN4cvc58internal12NodeTemplateILb1EEC2ERKS2_.exit
  %28 = add i64 %22, 1099511627776
  %29 = and i64 %28, 1152920405095219200
  %30 = and i64 %22, -1152920405095219201
  %31 = or disjoint i64 %29, %30
  store i64 %31, ptr %7, align 8, !noalias !37
  br label %_ZN4cvc58internal9TrustNode14getLemmaProvenENS0_12NodeTemplateILb1EEE.exit

32:                                               ; preds = %_ZN4cvc58internal12NodeTemplateILb1EEC2ERKS2_.exit
  %33 = icmp eq i32 %25, 1048574
  br i1 %33, label %34, label %_ZN4cvc58internal9TrustNode14getLemmaProvenENS0_12NodeTemplateILb1EEE.exit, !prof !10

34:                                               ; preds = %32
  %35 = or i64 %22, 1152920405095219200
  store i64 %35, ptr %7, align 8, !noalias !37
  invoke void @_ZN4cvc58internal4expr9NodeValue20markRefCountMaxedOutEv(ptr noundef nonnull align 8 dereferenceable(24) %7)
          to label %._ZN4cvc58internal9TrustNode14getLemmaProvenENS0_12NodeTemplateILb1EEE.exit_crit_edge unwind label %103

._ZN4cvc58internal9TrustNode14getLemmaProvenENS0_12NodeTemplateILb1EEE.exit_crit_edge: ; preds = %34
  %.pre13 = load i64, ptr %7, align 8
  br label %_ZN4cvc58internal9TrustNode14getLemmaProvenENS0_12NodeTemplateILb1EEE.exit

_ZN4cvc58internal9TrustNode14getLemmaProvenENS0_12NodeTemplateILb1EEE.exit: ; preds = %._ZN4cvc58internal9TrustNode14getLemmaProvenENS0_12NodeTemplateILb1EEE.exit_crit_edge, %32, %27
  %36 = phi i64 [ %.pre13, %._ZN4cvc58internal9TrustNode14getLemmaProvenENS0_12NodeTemplateILb1EEE.exit_crit_edge ], [ %22, %32 ], [ %31, %27 ]
  %37 = and i64 %36, 1152920405095219200
  %.not.i.i = icmp eq i64 %37, 1152920405095219200
  br i1 %.not.i.i, label %_ZN4cvc58internal12NodeTemplateILb1EED2Ev.exit, label %38, !prof !10

38:                                               ; preds = %_ZN4cvc58internal9TrustNode14getLemmaProvenENS0_12NodeTemplateILb1EEE.exit
  %39 = add i64 %36, 1152920405095219200
  %40 = and i64 %39, 1152920405095219200
  %41 = and i64 %36, -1152920405095219201
  %42 = or disjoint i64 %40, %41
  store i64 %42, ptr %7, align 8
  %43 = icmp eq i64 %40, 0
  br i1 %43, label %44, label %_ZN4cvc58internal12NodeTemplateILb1EED2Ev.exit, !prof !10

44:                                               ; preds = %38
  invoke void @_ZN4cvc58internal4expr9NodeValue15markForDeletionEv(ptr noundef nonnull align 8 dereferenceable(24) %7)
          to label %._ZN4cvc58internal12NodeTemplateILb1EED2Ev.exit_crit_edge unwind label %45

._ZN4cvc58internal12NodeTemplateILb1EED2Ev.exit_crit_edge: ; preds = %44
  %.pre14 = load i64, ptr %7, align 8
  br label %_ZN4cvc58internal12NodeTemplateILb1EED2Ev.exit

45:                                               ; preds = %44
  %46 = landingpad { ptr, i32 }
          catch ptr null
  %47 = extractvalue { ptr, i32 } %46, 0
  tail call void @__clang_call_terminate(ptr %47) #18
  unreachable

_ZN4cvc58internal12NodeTemplateILb1EED2Ev.exit:   ; preds = %._ZN4cvc58internal12NodeTemplateILb1EED2Ev.exit_crit_edge, %_ZN4cvc58internal9TrustNode14getLemmaProvenENS0_12NodeTemplateILb1EEE.exit, %38
  %48 = phi i64 [ %.pre14, %._ZN4cvc58internal12NodeTemplateILb1EED2Ev.exit_crit_edge ], [ %36, %_ZN4cvc58internal9TrustNode14getLemmaProvenENS0_12NodeTemplateILb1EEE.exit ], [ %42, %38 ]
  store ptr %7, ptr %6, align 8, !tbaa !3
  %49 = lshr i64 %48, 40
  %50 = trunc nuw nsw i64 %49 to i32
  %51 = and i32 %50, 1048575
  %52 = icmp samesign ult i32 %51, 1048574
  br i1 %52, label %53, label %58, !prof !9

53:                                               ; preds = %_ZN4cvc58internal12NodeTemplateILb1EED2Ev.exit
  %54 = add i64 %48, 1099511627776
  %55 = and i64 %54, 1152920405095219200
  %56 = and i64 %48, -1152920405095219201
  %57 = or disjoint i64 %55, %56
  store i64 %57, ptr %7, align 8
  br label %_ZN4cvc58internal12NodeTemplateILb1EEC2ERKS2_.exit7

58:                                               ; preds = %_ZN4cvc58internal12NodeTemplateILb1EED2Ev.exit
  %59 = icmp eq i32 %51, 1048574
  br i1 %59, label %60, label %_ZN4cvc58internal12NodeTemplateILb1EEC2ERKS2_.exit7, !prof !10

60:                                               ; preds = %58
  %61 = or i64 %48, 1152920405095219200
  store i64 %61, ptr %7, align 8
  invoke void @_ZN4cvc58internal4expr9NodeValue20markRefCountMaxedOutEv(ptr noundef nonnull align 8 dereferenceable(24) %7)
          to label %._ZN4cvc58internal12NodeTemplateILb1EEC2ERKS2_.exit7_crit_edge unwind label %105

._ZN4cvc58internal12NodeTemplateILb1EEC2ERKS2_.exit7_crit_edge: ; preds = %60
  %.pre15 = load i64, ptr %7, align 8
  br label %_ZN4cvc58internal12NodeTemplateILb1EEC2ERKS2_.exit7

_ZN4cvc58internal12NodeTemplateILb1EEC2ERKS2_.exit7: ; preds = %._ZN4cvc58internal12NodeTemplateILb1EEC2ERKS2_.exit7_crit_edge, %58, %53
  %62 = phi i64 [ %.pre15, %._ZN4cvc58internal12NodeTemplateILb1EEC2ERKS2_.exit7_crit_edge ], [ %48, %58 ], [ %57, %53 ]
  store i32 1, ptr %0, align 8, !tbaa !26
  %63 = getelementptr inbounds nuw i8, ptr %0, i64 8
  store ptr %7, ptr %63, align 8, !tbaa !3
  %64 = lshr i64 %62, 40
  %65 = trunc nuw nsw i64 %64 to i32
  %66 = and i32 %65, 1048575
  %67 = icmp samesign ult i32 %66, 1048574
  br i1 %67, label %68, label %73, !prof !9

68:                                               ; preds = %_ZN4cvc58internal12NodeTemplateILb1EEC2ERKS2_.exit7
  %69 = add i64 %62, 1099511627776
  %70 = and i64 %69, 1152920405095219200
  %71 = and i64 %62, -1152920405095219201
  %72 = or disjoint i64 %70, %71
  store i64 %72, ptr %7, align 8
  br label %77

73:                                               ; preds = %_ZN4cvc58internal12NodeTemplateILb1EEC2ERKS2_.exit7
  %74 = icmp eq i32 %66, 1048574
  br i1 %74, label %75, label %77, !prof !10

75:                                               ; preds = %73
  %76 = or i64 %62, 1152920405095219200
  store i64 %76, ptr %7, align 8
  invoke void @_ZN4cvc58internal4expr9NodeValue20markRefCountMaxedOutEv(ptr noundef nonnull align 8 dereferenceable(24) %7)
          to label %._crit_edge unwind label %107

._crit_edge:                                      ; preds = %75
  %.pre16 = load i64, ptr %7, align 8
  br label %77

77:                                               ; preds = %._crit_edge, %73, %68
  %78 = phi i64 [ %.pre16, %._crit_edge ], [ %62, %73 ], [ %72, %68 ]
  %79 = getelementptr inbounds nuw i8, ptr %0, i64 16
  store ptr %2, ptr %79, align 8, !tbaa !30
  %80 = and i64 %78, 1152920405095219200
  %.not.i.i9 = icmp eq i64 %80, 1152920405095219200
  br i1 %.not.i.i9, label %_ZN4cvc58internal12NodeTemplateILb1EED2Ev.exit10, label %81, !prof !10

81:                                               ; preds = %77
  %82 = add i64 %78, 1152920405095219200
  %83 = and i64 %82, 1152920405095219200
  %84 = and i64 %78, -1152920405095219201
  %85 = or disjoint i64 %83, %84
  store i64 %85, ptr %7, align 8
  %86 = icmp eq i64 %83, 0
  br i1 %86, label %87, label %_ZN4cvc58internal12NodeTemplateILb1EED2Ev.exit10, !prof !10

87:                                               ; preds = %81
  invoke void @_ZN4cvc58internal4expr9NodeValue15markForDeletionEv(ptr noundef nonnull align 8 dereferenceable(24) %7)
          to label %._ZN4cvc58internal12NodeTemplateILb1EED2Ev.exit10_crit_edge unwind label %88

._ZN4cvc58internal12NodeTemplateILb1EED2Ev.exit10_crit_edge: ; preds = %87
  %.pre17 = load i64, ptr %7, align 8
  br label %_ZN4cvc58internal12NodeTemplateILb1EED2Ev.exit10

88:                                               ; preds = %87
  %89 = landingpad { ptr, i32 }
          catch ptr null
  %90 = extractvalue { ptr, i32 } %89, 0
  tail call void @__clang_call_terminate(ptr %90) #18
  unreachable

_ZN4cvc58internal12NodeTemplateILb1EED2Ev.exit10: ; preds = %._ZN4cvc58internal12NodeTemplateILb1EED2Ev.exit10_crit_edge, %77, %81
  %91 = phi i64 [ %.pre17, %._ZN4cvc58internal12NodeTemplateILb1EED2Ev.exit10_crit_edge ], [ %78, %77 ], [ %85, %81 ]
  %92 = and i64 %91, 1152920405095219200
  %.not.i.i11 = icmp eq i64 %92, 1152920405095219200
  br i1 %.not.i.i11, label %_ZN4cvc58internal12NodeTemplateILb1EED2Ev.exit12, label %93, !prof !10

93:                                               ; preds = %_ZN4cvc58internal12NodeTemplateILb1EED2Ev.exit10
  %94 = add i64 %91, 1152920405095219200
  %95 = and i64 %94, 1152920405095219200
  %96 = and i64 %91, -1152920405095219201
  %97 = or disjoint i64 %95, %96
  store i64 %97, ptr %7, align 8
  %98 = icmp eq i64 %95, 0
  br i1 %98, label %99, label %_ZN4cvc58internal12NodeTemplateILb1EED2Ev.exit12, !prof !10

99:                                               ; preds = %93
  invoke void @_ZN4cvc58internal4expr9NodeValue15markForDeletionEv(ptr noundef nonnull align 8 dereferenceable(24) %7)
          to label %_ZN4cvc58internal12NodeTemplateILb1EED2Ev.exit12 unwind label %100

100:                                              ; preds = %99
  %101 = landingpad { ptr, i32 }
          catch ptr null
  %102 = extractvalue { ptr, i32 } %101, 0
  tail call void @__clang_call_terminate(ptr %102) #18
  unreachable

_ZN4cvc58internal12NodeTemplateILb1EED2Ev.exit12: ; preds = %_ZN4cvc58internal12NodeTemplateILb1EED2Ev.exit10, %93, %99
  call void @llvm.lifetime.end.p0(i64 8, ptr nonnull %4) #17
  ret void

103:                                              ; preds = %34
  %104 = landingpad { ptr, i32 }
          cleanup
  br label %109

105:                                              ; preds = %60
  %106 = landingpad { ptr, i32 }
          cleanup
  br label %109

107:                                              ; preds = %75
  %108 = landingpad { ptr, i32 }
          cleanup
  call void @_ZN4cvc58internal12NodeTemplateILb1EED2Ev(ptr noundef nonnull align 8 dereferenceable(8) %6) #17
  br label %109

109:                                              ; preds = %105, %107, %103
  %.sink = phi ptr [ %5, %103 ], [ %4, %107 ], [ %4, %105 ]
  %.pn.pn = phi { ptr, i32 } [ %104, %103 ], [ %108, %107 ], [ %106, %105 ]
  call void @_ZN4cvc58internal12NodeTemplateILb1EED2Ev(ptr noundef nonnull align 8 dereferenceable(8) %.sink) #17
  call void @llvm.lifetime.end.p0(i64 8, ptr nonnull %4) #17
  resume { ptr, i32 } %.pn.pn
}